; Function Attrs: mustprogress uwtable
define void @_ZNK6casadi7Reshape13get_transposeEv(ptr dead_on_unwind noalias writable sret(%"class.casadi::MX") align 8 %0, ptr noundef nonnull align 8 dereferenceable(64) %1) unnamed_addr #3 align 2 {
  %3 = getelementptr inbounds nuw i8, ptr %1, i64 32
  %4 = getelementptr inbounds nuw i8, ptr %1, i64 40
  %5 = load ptr, ptr %4, align 8, !tbaa !35
  %6 = load ptr, ptr %3, align 8, !tbaa !38
  %.not.i.i.i.not = icmp eq ptr %5, %6
  br i1 %.not.i.i.i.not, label %7, label %_ZNK6casadi6MXNode3depEx.exit

7:                                                ; preds = %2
  tail call void (ptr, ...) @_ZSt24__throw_out_of_range_fmtPKcz(ptr noundef nonnull @.str.14, i64 noundef 0, i64 noundef 0) #21
  unreachable

_ZNK6casadi6MXNode3depEx.exit:                    ; preds = %2
  %8 = tail call noundef nonnull align 8 dereferenceable(8) ptr @_ZNK6casadi2MX8sparsityEv(ptr noundef nonnull align 8 dereferenceable(8) %6)
  %9 = tail call noundef zeroext i1 @_ZNK6casadi8Sparsity9is_vectorEv(ptr noundef nonnull align 8 dereferenceable(8) %8)
  br i1 %9, label %10, label %18

10:                                               ; preds = %_ZNK6casadi6MXNode3depEx.exit
  %11 = getelementptr inbounds nuw i8, ptr %1, i64 56
  %12 = tail call noundef zeroext i1 @_ZNK6casadi8Sparsity9is_vectorEv(ptr noundef nonnull align 8 dereferenceable(8) %11)
  br i1 %12, label %13, label %18

13:                                               ; preds = %10
  %14 = load ptr, ptr %4, align 8, !tbaa !35
  %15 = load ptr, ptr %3, align 8, !tbaa !38
  %.not.i.i.i1.not = icmp eq ptr %14, %15
  br i1 %.not.i.i.i1.not, label %16, label %_ZNK6casadi6MXNode3depEx.exit2

16:                                               ; preds = %13
  tail call void (ptr, ...) @_ZSt24__throw_out_of_range_fmtPKcz(ptr noundef nonnull @.str.14, i64 noundef 0, i64 noundef 0) #21
  unreachable

_ZNK6casadi6MXNode3depEx.exit2:                   ; preds = %13
  %17 = load ptr, ptr %15, align 8, !tbaa !54
  store ptr %17, ptr %0, align 8, !tbaa !54
  tail call void @_ZN6casadi13GenericSharedINS_12SharedObjectENS_20SharedObjectInternalEE8count_upEv(ptr noundef nonnull align 8 dereferenceable(8) %0)
  br label %19

18:                                               ; preds = %10, %_ZNK6casadi6MXNode3depEx.exit
  tail call void @_ZNK6casadi6MXNode13get_transposeEv(ptr dead_on_unwind writable sret(%"class.casadi::MX") align 8 %0, ptr noundef nonnull align 8 dereferenceable(64) %1)
  br label %19

19:                                               ; preds = %18, %_ZNK6casadi6MXNode3depEx.exit2
  ret void
}